; Function Attrs: mustprogress uwtable
define void @_ZN3gmx30TrajectoryAnalysisRunnerCommon9initFrameEv(ptr nocapture noundef nonnull readonly align 8 dereferenceable(8) %0) local_unnamed_addr #0 align 2 {
  %2 = load ptr, ptr %0, align 8
  %3 = getelementptr inbounds i8, ptr %2, i64 256
  %4 = load ptr, ptr %3, align 8
  %.not = icmp eq ptr %4, null
  br i1 %.not, label %8, label %5

5:                                                ; preds = %1
  %6 = getelementptr inbounds i8, ptr %2, i64 248
  %7 = load ptr, ptr %6, align 8
  tail call void @_Z15gmx_rmpbc_trxfrP9gmx_rmpbcP10t_trxframe(ptr noundef nonnull %4, ptr noundef %7)
  br label %8

8:                                                ; preds = %5, %1
  ret void
}